target datalayout = "e-m:e-p270:32:32-p271:32:32-p272:64:64-i64:64-i128:128-f80:128-n8:16:32:64-S128"
target triple = "x86_64-pc-linux-gnu"

%"struct.faiss::Clustering" = type { ptr, %"struct.faiss::ClusteringParameters", i64, i64, %"class.std::vector", %"class.std::vector.0" }
%"struct.faiss::ClusteringParameters" = type { i32, i32, i8, i8, i8, i8, i8, i32, i32, i32, i64 }
%"class.std::vector" = type { %"struct.std::_Vector_base" }
%"struct.std::_Vector_base" = type { %"struct.std::_Vector_base<float, std::allocator<float>>::_Vector_impl" }
%"struct.std::_Vector_base<float, std::allocator<float>>::_Vector_impl" = type { %"struct.std::_Vector_base<float, std::allocator<float>>::_Vector_impl_data" }
%"struct.std::_Vector_base<float, std::allocator<float>>::_Vector_impl_data" = type { ptr, ptr, ptr }
%"class.std::vector.0" = type { %"struct.std::_Vector_base.1" }
%"struct.std::_Vector_base.1" = type { %"struct.std::_Vector_base<faiss::ClusteringIterationStats, std::allocator<faiss::ClusteringIterationStats>>::_Vector_impl" }
%"struct.std::_Vector_base<faiss::ClusteringIterationStats, std::allocator<faiss::ClusteringIterationStats>>::_Vector_impl" = type { %"struct.std::_Vector_base<faiss::ClusteringIterationStats, std::allocator<faiss::ClusteringIterationStats>>::_Vector_impl_data" }
%"struct.std::_Vector_base<faiss::ClusteringIterationStats, std::allocator<faiss::ClusteringIterationStats>>::_Vector_impl_data" = type { ptr, ptr, ptr }

; Function Attrs: mustprogress nounwind uwtable
define linkonce_odr noundef ptr @_ZNKSt6vectorIfSaIfEE11_M_data_ptrIfEEPT_S4_(ptr noundef nonnull align 8 dereferenceable(24) %0, ptr noundef %1) #1 comdat align 2 {
  %3 = alloca ptr, align 8
  %4 = alloca ptr, align 8
  store ptr %0, ptr %3, align 8
  store ptr %1, ptr %4, align 8
  %5 = load ptr, ptr %4, align 8
  ret ptr %5
}

; Function Attrs: mustprogress nounwind uwtable
define linkonce_odr noundef nonnull align 4 dereferenceable(4) ptr @_ZNSt6vectorIfSaIfEEixEm(ptr noundef nonnull align 8 dereferenceable(24) %0, i64 noundef %1) #1 comdat align 2 {
  %3 = alloca ptr, align 8
  %4 = alloca i64, align 8
  store ptr %0, ptr %3, align 8
  store i64 %1, ptr %4, align 8
  %5 = load ptr, ptr %3, align 8
  %6 = getelementptr inbounds %"struct.std::_Vector_base", ptr %5, i32 0, i32 0
  %7 = getelementptr inbounds %"struct.std::_Vector_base<float, std::allocator<float>>::_Vector_impl_data", ptr %6, i32 0, i32 0
  %8 = load ptr, ptr %7, align 8
  %9 = load i64, ptr %4, align 8
  %10 = getelementptr inbounds float, ptr %8, i64 %9
  ret ptr %10
}

; Function Attrs: mustprogress nounwind uwtable
define linkonce_odr noundef i64 @_ZNKSt6vectorIfSaIfEE4sizeEv(ptr noundef nonnull align 8 dereferenceable(24) %0) #1 comdat align 2 {
  %2 = alloca ptr, align 8
  store ptr %0, ptr %2, align 8
  %3 = load ptr, ptr %2, align 8
  %4 = getelementptr inbounds %"struct.std::_Vector_base", ptr %3, i32 0, i32 0
  %5 = getelementptr inbounds %"struct.std::_Vector_base<float, std::allocator<float>>::_Vector_impl_data", ptr %4, i32 0, i32 1
  %6 = load ptr, ptr %5, align 8
  %7 = getelementptr inbounds %"struct.std::_Vector_base", ptr %3, i32 0, i32 0
  %8 = getelementptr inbounds %"struct.std::_Vector_base<float, std::allocator<float>>::_Vector_impl_data", ptr %7, i32 0, i32 0
  %9 = load ptr, ptr %8, align 8
  %10 = ptrtoint ptr %6 to i64
  %11 = ptrtoint ptr %9 to i64
  %12 = sub i64 %10, %11
  %13 = sdiv exact i64 %12, 4
  ret i64 %13
}

; Function Attrs: mustprogress nounwind uwtable
define linkonce_odr noundef ptr @_ZNSt6vectorIfSaIfEE4dataEv(ptr noundef nonnull align 8 dereferenceable(24) %0) #1 comdat align 2 {
  %2 = alloca ptr, align 8
  store ptr %0, ptr %2, align 8
  %3 = load ptr, ptr %2, align 8
  %4 = getelementptr inbounds %"struct.std::_Vector_base", ptr %3, i32 0, i32 0
  %5 = getelementptr inbounds %"struct.std::_Vector_base<float, std::allocator<float>>::_Vector_impl_data", ptr %4, i32 0, i32 0
  %6 = load ptr, ptr %5, align 8
  %7 = call noundef ptr @_ZNKSt6vectorIfSaIfEE11_M_data_ptrIfEEPT_S4_(ptr noundef nonnull align 8 dereferenceable(24) %3, ptr noundef %6) #12
  ret ptr %7
}

; Function Attrs: mustprogress uwtable
define void @_ZN5faiss10Clustering22post_process_centroidsEv(ptr noundef nonnull align 8 dereferenceable(112) %0) #0 align 2 {
  %2 = alloca ptr, align 8
  %3 = alloca i64, align 8
  store ptr %0, ptr %2, align 8
  %4 = load ptr, ptr %2, align 8
  %5 = getelementptr inbounds i8, ptr %4, i64 8
  %6 = getelementptr inbounds %"struct.faiss::ClusteringParameters", ptr %5, i32 0, i32 3
  %7 = load i8, ptr %6, align 1
  %8 = trunc i8 %7 to i1
  br i1 %8, label %9, label %16

9:                                                ; preds = %1
  %10 = getelementptr inbounds %"struct.faiss::Clustering", ptr %4, i32 0, i32 2
  %11 = load i64, ptr %10, align 8
  %12 = getelementptr inbounds %"struct.faiss::Clustering", ptr %4, i32 0, i32 3
  %13 = load i64, ptr %12, align 8
  %14 = getelementptr inbounds %"struct.faiss::Clustering", ptr %4, i32 0, i32 4
  %15 = call noundef ptr @_ZNSt6vectorIfSaIfEE4dataEv(ptr noundef nonnull align 8 dereferenceable(24) %14) #12
  call void @_ZN5faiss14fvec_renorm_L2EmmPf(i64 noundef %11, i64 noundef %13, ptr noundef %15)
  br label %16

16:                                               ; preds = %9, %1
  %17 = getelementptr inbounds i8, ptr %4, i64 8
  %18 = getelementptr inbounds %"struct.faiss::ClusteringParameters", ptr %17, i32 0, i32 4
  %19 = load i8, ptr %18, align 2
  %20 = trunc i8 %19 to i1
  br i1 %20, label %21, label %40

21:                                               ; preds = %16
  store i64 0, ptr %3, align 8
  br label %22

22:                                               ; preds = %36, %21
  %23 = load i64, ptr %3, align 8
  %24 = getelementptr inbounds %"struct.faiss::Clustering", ptr %4, i32 0, i32 4
  %25 = call noundef i64 @_ZNKSt6vectorIfSaIfEE4sizeEv(ptr noundef nonnull align 8 dereferenceable(24) %24) #12
  %26 = icmp ult i64 %23, %25
  br i1 %26, label %27, label %39

27:                                               ; preds = %22
  %28 = getelementptr inbounds %"struct.faiss::Clustering", ptr %4, i32 0, i32 4
  %29 = load i64, ptr %3, align 8
  %30 = call noundef nonnull align 4 dereferenceable(4) ptr @_ZNSt6vectorIfSaIfEEixEm(ptr noundef nonnull align 8 dereferenceable(24) %28, i64 noundef %29) #12
  %31 = load float, ptr %30, align 4
  %32 = call float @llvm.round.f32(float %31)
  %33 = getelementptr inbounds %"struct.faiss::Clustering", ptr %4, i32 0, i32 4
  %34 = load i64, ptr %3, align 8
  %35 = call noundef nonnull align 4 dereferenceable(4) ptr @_ZNSt6vectorIfSaIfEEixEm(ptr noundef nonnull align 8 dereferenceable(24) %33, i64 noundef %34) #12
  store float %32, ptr %35, align 4
  br label %36

36:                                               ; preds = %27
  %37 = load i64, ptr %3, align 8
  %38 = add i64 %37, 1
  store i64 %38, ptr %3, align 8
  br label %22, !llvm.loop !5

39:                                               ; preds = %22
  br label %40

40:                                               ; preds = %39, %16
  ret void
}