; Function Attrs: mustprogress uwtable
define void @_ZN5faiss10Clustering22post_process_centroidsEv(ptr nocapture noundef nonnull readonly align 8 dereferenceable(112) %0) local_unnamed_addr #0 align 2 {
  %2 = getelementptr inbounds i8, ptr %0, i64 17
  %3 = load i8, ptr %2, align 1
  %4 = and i8 %3, 1
  %.not = icmp eq i8 %4, 0
  br i1 %.not, label %12, label %5

5:                                                ; preds = %1
  %6 = getelementptr inbounds i8, ptr %0, i64 48
  %7 = load i64, ptr %6, align 8
  %8 = getelementptr inbounds i8, ptr %0, i64 56
  %9 = load i64, ptr %8, align 8
  %10 = getelementptr inbounds i8, ptr %0, i64 64
  %11 = load ptr, ptr %10, align 8
  tail call void @_ZN5faiss14fvec_renorm_L2EmmPf(i64 noundef %7, i64 noundef %9, ptr noundef %11)
  br label %12

12:                                               ; preds = %5, %1
  %13 = getelementptr inbounds i8, ptr %0, i64 18
  %14 = load i8, ptr %13, align 2
  %15 = and i8 %14, 1
  %.not4 = icmp eq i8 %15, 0
  br i1 %.not4, label %.loopexit, label %.preheader

.preheader:                                       ; preds = %12
  %16 = getelementptr inbounds i8, ptr %0, i64 64
  %17 = getelementptr inbounds i8, ptr %0, i64 72
  %18 = load ptr, ptr %17, align 8
  %19 = load ptr, ptr %16, align 8
  %.not6 = icmp eq ptr %18, %19
  br i1 %.not6, label %.loopexit, label %.lr.ph

.lr.ph:                                           ; preds = %.preheader, %.lr.ph
  %20 = phi ptr [ %26, %.lr.ph ], [ %19, %.preheader ]
  %.05 = phi i64 [ %24, %.lr.ph ], [ 0, %.preheader ]
  %21 = getelementptr inbounds float, ptr %20, i64 %.05
  %22 = load float, ptr %21, align 4
  %23 = tail call float @llvm.round.f32(float %22)
  store float %23, ptr %21, align 4
  %24 = add nuw i64 %.05, 1
  %25 = load ptr, ptr %17, align 8
  %26 = load ptr, ptr %16, align 8
  %27 = ptrtoint ptr %25 to i64
  %28 = ptrtoint ptr %26 to i64
  %29 = sub i64 %27, %28
  %30 = ashr exact i64 %29, 2
  %31 = icmp ult i64 %24, %30
  br i1 %31, label %.lr.ph, label %.loopexit, !llvm.loop !5

.loopexit:                                        ; preds = %.lr.ph, %.preheader, %12
  ret void
}